; Listing generated by Microsoft (R) Optimizing Compiler Version 14.00.50727.762 

	TITLE	c:\develop\MyoskOS\string.c
	.686P
	.XMM
	include listing.inc
	.model	flat

INCLUDELIB MSVCRTD
INCLUDELIB OLDNAMES

PUBLIC	_memset
; Function compile flags: /Odtp /ZI
; File c:\develop\myoskos\string.c
;	COMDAT _memset
_TEXT	SEGMENT
_i$ = -4						; size = 4
_pSource$ = 8						; size = 4
_ch$ = 12						; size = 4
_size$ = 16						; size = 4
_memset	PROC						; COMDAT

; 8    : {

  00000	55		 push	 ebp
  00001	8b ec		 mov	 ebp, esp
  00003	83 ec 44	 sub	 esp, 68			; 00000044H
  00006	53		 push	 ebx
  00007	56		 push	 esi
  00008	57		 push	 edi

; 9    : 	size_t i;
; 10   : 
; 11   : 	for( i=0; i<size; i++)

  00009	c7 45 fc 00 00
	00 00		 mov	 DWORD PTR _i$[ebp], 0
  00010	eb 09		 jmp	 SHORT $LN3@memset
$LN2@memset:
  00012	8b 45 fc	 mov	 eax, DWORD PTR _i$[ebp]
  00015	83 c0 01	 add	 eax, 1
  00018	89 45 fc	 mov	 DWORD PTR _i$[ebp], eax
$LN3@memset:
  0001b	8b 45 fc	 mov	 eax, DWORD PTR _i$[ebp]
  0001e	3b 45 10	 cmp	 eax, DWORD PTR _size$[ebp]
  00021	73 0d		 jae	 SHORT $LN1@memset

; 12   : 		*(((char *)pSource)+i ) = (char)ch;

  00023	8b 45 08	 mov	 eax, DWORD PTR _pSource$[ebp]
  00026	03 45 fc	 add	 eax, DWORD PTR _i$[ebp]
  00029	8a 4d 0c	 mov	 cl, BYTE PTR _ch$[ebp]
  0002c	88 08		 mov	 BYTE PTR [eax], cl
  0002e	eb e2		 jmp	 SHORT $LN2@memset
$LN1@memset:

; 13   : 
; 14   : 	return pSource;

  00030	8b 45 08	 mov	 eax, DWORD PTR _pSource$[ebp]

; 15   : }

  00033	5f		 pop	 edi
  00034	5e		 pop	 esi
  00035	5b		 pop	 ebx
  00036	8b e5		 mov	 esp, ebp
  00038	5d		 pop	 ebp
  00039	c3		 ret	 0
_memset	ENDP
_TEXT	ENDS
END
